; Function Attrs: nounwind uwtable
define hidden zeroext i8 @SDL_GetJoystickHat_REAL(ptr noundef %0, i32 noundef %1) local_unnamed_addr #1 {
  %3 = tail call i32 @SDL_AddAtomicInt_REAL(ptr noundef nonnull @SDL_joystick_lock_pending, i32 noundef 1) #13
  %4 = load ptr, ptr @SDL_joystick_lock, align 8
  tail call void @SDL_LockMutex_REAL(ptr noundef %4) #13
  %5 = tail call i32 @SDL_AddAtomicInt_REAL(ptr noundef nonnull @SDL_joystick_lock_pending, i32 noundef -1) #13
  %6 = load i32, ptr @SDL_joysticks_locked, align 4
  %7 = add nsw i32 %6, 1
  store i32 %7, ptr @SDL_joysticks_locked, align 4
  %8 = tail call zeroext i1 @SDL_ObjectValid(ptr noundef %0, i32 noundef 4) #13
  br i1 %8, label %21, label %9

9:                                                ; preds = %2
  %10 = tail call zeroext i1 (ptr, ...) @SDL_SetError_REAL(ptr noundef nonnull @.str.2, ptr noundef nonnull @.str.3) #13
  %11 = load i32, ptr @SDL_joysticks_locked, align 4
  %12 = add nsw i32 %11, -1
  store i32 %12, ptr @SDL_joysticks_locked, align 4
  %.b4.i = load i1, ptr @SDL_joysticks_initialized, align 1
  %13 = icmp ne i32 %12, 0
  %or.cond.i = select i1 %.b4.i, i1 true, i1 %13
  br i1 %or.cond.i, label %.critedge.i, label %14

14:                                               ; preds = %9
  %15 = tail call i32 @SDL_GetAtomicInt_REAL(ptr noundef nonnull @SDL_joystick_lock_pending) #13
  %16 = icmp eq i32 %15, 0
  br i1 %16, label %17, label %.critedge.i

17:                                               ; preds = %14
  %18 = load ptr, ptr @SDL_joystick_lock, align 8
  tail call void @SDL_LockMutex_REAL(ptr noundef %18) #13
  %19 = load ptr, ptr @SDL_joystick_lock, align 8
  tail call void @SDL_UnlockMutex_REAL(ptr noundef %19) #13
  store ptr null, ptr @SDL_joystick_lock, align 8
  tail call void @SDL_UnlockMutex_REAL(ptr noundef %18) #13
  tail call void @SDL_DestroyMutex_REAL(ptr noundef %18) #13
  br label %SDL_UnlockJoysticks_REAL.exit

.critedge.i:                                      ; preds = %14, %9
  %20 = load ptr, ptr @SDL_joystick_lock, align 8
  tail call void @SDL_UnlockMutex_REAL(ptr noundef %20) #13
  br label %SDL_UnlockJoysticks_REAL.exit

21:                                               ; preds = %2
  %22 = getelementptr inbounds nuw i8, ptr %0, i64 96
  %23 = load i32, ptr %22, align 8
  %24 = icmp slt i32 %1, %23
  br i1 %24, label %25, label %31

25:                                               ; preds = %21
  %26 = getelementptr inbounds nuw i8, ptr %0, i64 104
  %27 = load ptr, ptr %26, align 8
  %28 = sext i32 %1 to i64
  %29 = getelementptr inbounds i8, ptr %27, i64 %28
  %30 = load i8, ptr %29, align 1
  br label %33

31:                                               ; preds = %21
  %32 = tail call zeroext i1 (ptr, ...) @SDL_SetError_REAL(ptr noundef nonnull @.str.6, i32 noundef %23) #13
  br label %33

33:                                               ; preds = %31, %25
  %.0 = phi i8 [ %30, %25 ], [ 0, %31 ]
  %34 = load i32, ptr @SDL_joysticks_locked, align 4
  %35 = add nsw i32 %34, -1
  store i32 %35, ptr @SDL_joysticks_locked, align 4
  %.b4.i10 = load i1, ptr @SDL_joysticks_initialized, align 1
  %36 = icmp ne i32 %35, 0
  %or.cond.i11 = select i1 %.b4.i10, i1 true, i1 %36
  br i1 %or.cond.i11, label %.critedge.i12, label %37

37:                                               ; preds = %33
  %38 = tail call i32 @SDL_GetAtomicInt_REAL(ptr noundef nonnull @SDL_joystick_lock_pending) #13
  %39 = icmp eq i32 %38, 0
  br i1 %39, label %40, label %.critedge.i12

40:                                               ; preds = %37
  %41 = load ptr, ptr @SDL_joystick_lock, align 8
  tail call void @SDL_LockMutex_REAL(ptr noundef %41) #13
  %42 = load ptr, ptr @SDL_joystick_lock, align 8
  tail call void @SDL_UnlockMutex_REAL(ptr noundef %42) #13
  store ptr null, ptr @SDL_joystick_lock, align 8
  tail call void @SDL_UnlockMutex_REAL(ptr noundef %41) #13
  tail call void @SDL_DestroyMutex_REAL(ptr noundef %41) #13
  br label %SDL_UnlockJoysticks_REAL.exit

.critedge.i12:                                    ; preds = %37, %33
  %43 = load ptr, ptr @SDL_joystick_lock, align 8
  tail call void @SDL_UnlockMutex_REAL(ptr noundef %43) #13
  br label %SDL_UnlockJoysticks_REAL.exit

SDL_UnlockJoysticks_REAL.exit:                    ; preds = %.critedge.i12, %40, %.critedge.i, %17
  %.07 = phi i8 [ 0, %17 ], [ 0, %.critedge.i ], [ %.0, %40 ], [ %.0, %.critedge.i12 ]
  ret i8 %.07
}